; Function Attrs: nofree norecurse nosync nounwind memory(argmem: readwrite) uwtable
define internal void @blend_phoenix_8bit(ptr noundef readonly captures(none) %0, i64 noundef %1, ptr noundef readonly captures(none) %2, i64 noundef %3, ptr noundef writeonly captures(none) %4, i64 noundef %5, i64 noundef %6, i64 noundef %7, ptr noundef readonly captures(none) %8, ptr readnone captures(none) %9) #6 {
  %11 = getelementptr inbounds nuw i8, ptr %8, i64 8
  %12 = load double, ptr %11, align 8, !tbaa !70
  %13 = fptrunc nsz double %12 to float
  %14 = icmp sgt i64 %7, 0
  %15 = icmp sgt i64 %6, 0
  %or.cond = and i1 %14, %15
  br i1 %or.cond, label %.preheader.us, label %._crit_edge58

.preheader.us:                                    ; preds = %10, %._crit_edge.us
  %indvars.iv62 = phi i64 [ %indvars.iv.next63, %._crit_edge.us ], [ 0, %10 ]
  %.04256.us = phi ptr [ %31, %._crit_edge.us ], [ %4, %10 ]
  %.04355.us = phi ptr [ %33, %._crit_edge.us ], [ %2, %10 ]
  %.04454.us = phi ptr [ %32, %._crit_edge.us ], [ %0, %10 ]
  br label %16

16:                                               ; preds = %.preheader.us, %16
  %indvars.iv = phi i64 [ 0, %.preheader.us ], [ %indvars.iv.next, %16 ]
  %17 = getelementptr inbounds nuw i8, ptr %.04454.us, i64 %indvars.iv
  %18 = load i8, ptr %17, align 1, !tbaa !89
  %19 = uitofp i8 %18 to float
  %20 = getelementptr inbounds nuw i8, ptr %.04355.us, i64 %indvars.iv
  %21 = load i8, ptr %20, align 1, !tbaa !89
  %..us = tail call i8 @llvm.umin.i8(i8 %18, i8 %21)
  %22 = zext i8 %..us to i32
  %.in50.us = tail call i8 @llvm.umax.i8(i8 %18, i8 %21)
  %23 = zext i8 %.in50.us to i32
  %24 = xor i8 %18, -1
  %.neg52.us = zext i8 %24 to i32
  %25 = add nuw nsw i32 %.neg52.us, %22
  %26 = sub nsw i32 %25, %23
  %27 = sitofp i32 %26 to float
  %28 = tail call nsz float @llvm.fmuladd.f32(float %27, float %13, float %19)
  %29 = fptoui float %28 to i8
  %30 = getelementptr inbounds nuw i8, ptr %.04256.us, i64 %indvars.iv
  store i8 %29, ptr %30, align 1, !tbaa !89
  %indvars.iv.next = add nuw nsw i64 %indvars.iv, 1
  %exitcond.not = icmp eq i64 %indvars.iv.next, %6
  br i1 %exitcond.not, label %._crit_edge.us, label %16, !llvm.loop !142

._crit_edge.us:                                   ; preds = %16
  %31 = getelementptr inbounds i8, ptr %.04256.us, i64 %5
  %32 = getelementptr inbounds i8, ptr %.04454.us, i64 %1
  %33 = getelementptr inbounds i8, ptr %.04355.us, i64 %3
  %indvars.iv.next63 = add nuw nsw i64 %indvars.iv62, 1
  %exitcond65.not = icmp eq i64 %indvars.iv.next63, %7
  br i1 %exitcond65.not, label %._crit_edge58, label %.preheader.us, !llvm.loop !143

._crit_edge58:                                    ; preds = %._crit_edge.us, %10
  ret void
}